target datalayout = "e-m:e-p270:32:32-p271:32:32-p272:64:64-i64:64-i128:128-f80:128-n8:16:32:64-S128"
target triple = "x86_64-pc-linux-gnu"

%struct.pm_scope_node = type { %struct.pm_node, ptr, ptr, ptr, ptr, %struct.pm_constant_id_list_t, ptr, ptr, ptr, ptr, i32, ptr, ptr, i32, ptr }
%struct.pm_node = type { i16, i16, i32, %struct.pm_location_t }
%struct.pm_location_t = type { ptr, ptr }
%struct.pm_constant_id_list_t = type { i64, i64, ptr }
%struct.pm_parser = type { i32, i32, i32, i32, i32, i32, i32, %struct.anon.23, ptr, ptr, %struct.pm_token_t, %struct.pm_token_t, ptr, ptr, %struct.pm_list_t, %struct.pm_list_t, %struct.pm_location_t, %struct.pm_list_t, %struct.pm_list_t, ptr, ptr, ptr, ptr, ptr, ptr, ptr, %struct.pm_string_t, %struct.pm_constant_pool_t, %struct.pm_newline_list_t, i16, %struct.pm_string_t, i32, ptr, ptr, i32, i8, i8, i8, i8, i8, i8, i8, i8, i8, i8, i8, i8, i8 }
%struct.anon.23 = type { ptr, [4 x %struct.pm_lex_mode], i64 }
%struct.pm_lex_mode = type { i32, %union.anon.24, ptr }
%union.anon.24 = type { %struct.anon.28 }
%struct.anon.28 = type { %struct.pm_heredoc_lex_mode_t, ptr, ptr, i8 }
%struct.pm_heredoc_lex_mode_t = type { ptr, i64, i32, i32 }
%struct.pm_token_t = type { i32, ptr, ptr }
%struct.pm_list_t = type { i64, ptr, ptr }
%struct.pm_constant_pool_t = type { ptr, ptr, i32, i32 }
%struct.pm_newline_list_t = type { ptr, i64, i64, ptr }
%struct.pm_string_t = type { ptr, i64, i32 }
%struct.pm_parse_result_t = type { %struct.pm_parser, %struct.pm_options, %struct.pm_string_t, %struct.pm_scope_node, i8 }
%struct.pm_options = type { ptr, ptr, %struct.pm_string_t, i32, %struct.pm_string_t, i64, ptr, i32, i8, i8, i8, i8, i8, i8 }
%struct.pm_buffer_t = type { i64, i64, ptr }

@rb_stdin = external global i64, align 8
@.str.297 = private unnamed_addr constant [72 x i8] c"pm_options_frozen_string_literal_init: invalid frozen_string_literal=%d\00", align 1

; Function Attrs: nounwind sspstrong uwtable
define internal void @pm_options_frozen_string_literal_init(ptr noundef %0) #0 {
  %2 = alloca ptr, align 8
  %3 = alloca i32, align 4
  store ptr %0, ptr %2, align 8, !tbaa !737
  call void @llvm.lifetime.start.p0(i64 4, ptr %3) #31
  %4 = call i32 @rb_iseq_opt_frozen_string_literal()
  store i32 %4, ptr %3, align 4, !tbaa !41
  %5 = load i32, ptr %3, align 4, !tbaa !41
  switch i32 %5, label %10 [
    i32 -1, label %12
    i32 0, label %6
    i32 1, label %8
  ]

6:                                                ; preds = %1
  %7 = load ptr, ptr %2, align 8, !tbaa !737
  call void @pm_options_frozen_string_literal_set(ptr noundef %7, i1 noundef zeroext false)
  br label %12

8:                                                ; preds = %1
  %9 = load ptr, ptr %2, align 8, !tbaa !737
  call void @pm_options_frozen_string_literal_set(ptr noundef %9, i1 noundef zeroext true)
  br label %12

10:                                               ; preds = %1
  %11 = load i32, ptr %3, align 4, !tbaa !41
  call void (ptr, ...) @rb_bug(ptr noundef @.str.297, i32 noundef %11) #37
  unreachable

12:                                               ; preds = %8, %6, %1
  call void @llvm.lifetime.end.p0(i64 4, ptr %3) #31
  ret void
}

; Function Attrs: nounwind sspstrong uwtable
define hidden i64 @pm_parse_stdin(ptr noundef %0) #0 {
  %2 = alloca ptr, align 8
  %3 = alloca %struct.pm_buffer_t, align 8
  %4 = alloca ptr, align 8
  store ptr %0, ptr %2, align 8, !tbaa !152
  %5 = load ptr, ptr %2, align 8, !tbaa !152
  %6 = getelementptr inbounds nuw %struct.pm_parse_result_t, ptr %5, i32 0, i32 1
  call void @pm_options_frozen_string_literal_init(ptr noundef %6)
  call void @llvm.lifetime.start.p0(i64 24, ptr %3) #31
  call void @llvm.lifetime.start.p0(i64 8, ptr %4) #31
  %7 = load ptr, ptr %2, align 8, !tbaa !152
  %8 = getelementptr inbounds nuw %struct.pm_parse_result_t, ptr %7, i32 0, i32 0
  %9 = load i64, ptr @rb_stdin, align 8, !tbaa !7
  %10 = inttoptr i64 %9 to ptr
  %11 = load ptr, ptr %2, align 8, !tbaa !152
  %12 = getelementptr inbounds nuw %struct.pm_parse_result_t, ptr %11, i32 0, i32 1
  %13 = call ptr @pm_parse_stream(ptr noundef %8, ptr noundef %3, ptr noundef %10, ptr noundef @pm_parse_stdin_fgets, ptr noundef %12)
  store ptr %13, ptr %4, align 8, !tbaa !290
  %14 = load ptr, ptr %2, align 8, !tbaa !152
  %15 = getelementptr inbounds nuw %struct.pm_parse_result_t, ptr %14, i32 0, i32 2
  %16 = call ptr @pm_buffer_value(ptr noundef %3)
  %17 = call i64 @pm_buffer_length(ptr noundef %3)
  call void @pm_string_owned_init(ptr noundef %15, ptr noundef %16, i64 noundef %17)
  call void @rb_reset_argf_lineno(i64 noundef 0)
  %18 = load ptr, ptr %2, align 8, !tbaa !152
  %19 = load ptr, ptr %4, align 8, !tbaa !290
  %20 = call i64 @pm_parse_process(ptr noundef %18, ptr noundef %19, ptr noundef null)
  call void @llvm.lifetime.end.p0(i64 8, ptr %4) #31
  call void @llvm.lifetime.end.p0(i64 24, ptr %3) #31
  ret i64 %20
}