; Function Attrs: nounwind sspstrong uwtable
define hidden i64 @pm_parse_stdin(ptr noundef %0) local_unnamed_addr #1 {
  %2 = alloca %struct.pm_buffer_t, align 8
  %3 = getelementptr inbounds nuw i8, ptr %0, i64 712
  %4 = tail call i32 @rb_iseq_opt_frozen_string_literal() #38
  switch i32 %4, label %6 [
    i32 -1, label %pm_options_frozen_string_literal_init.exit
    i32 0, label %.sink.split.i
    i32 1, label %5
  ]

5:                                                ; preds = %1
  br label %.sink.split.i

6:                                                ; preds = %1
  tail call void (ptr, ...) @rb_bug(ptr noundef nonnull @.str.297, i32 noundef %4) #39
  unreachable

.sink.split.i:                                    ; preds = %5, %1
  %.sink.i = phi i1 [ true, %5 ], [ false, %1 ]
  tail call void @pm_options_frozen_string_literal_set(ptr noundef nonnull %3, i1 noundef zeroext %.sink.i) #38
  br label %pm_options_frozen_string_literal_init.exit

pm_options_frozen_string_literal_init.exit:       ; preds = %1, %.sink.split.i
  call void @llvm.lifetime.start.p0(i64 24, ptr nonnull %2) #38
  %7 = load i64, ptr @rb_stdin, align 8, !tbaa !37
  %8 = inttoptr i64 %7 to ptr
  %9 = call ptr @pm_parse_stream(ptr noundef %0, ptr noundef nonnull %2, ptr noundef %8, ptr noundef nonnull @pm_parse_stdin_fgets, ptr noundef nonnull %3) #38
  %10 = getelementptr inbounds nuw i8, ptr %0, i64 816
  %11 = call ptr @pm_buffer_value(ptr noundef nonnull %2) #38
  %12 = call i64 @pm_buffer_length(ptr noundef nonnull %2) #38
  call void @pm_string_owned_init(ptr noundef nonnull %10, ptr noundef %11, i64 noundef %12) #38
  call void @rb_reset_argf_lineno(i64 noundef 0) #38
  %13 = call fastcc i64 @pm_parse_process(ptr noundef %0, ptr noundef %9, ptr noundef null)
  call void @llvm.lifetime.end.p0(i64 24, ptr nonnull %2) #38
  ret i64 %13
}